target datalayout = "e-m:e-p270:32:32-p271:32:32-p272:64:64-i64:64-i128:128-f80:128-n8:16:32:64-S128"
target triple = "x86_64-pc-linux-gnu"

@max_alloc_size = internal global i64 2147483647, align 8

; Function Attrs: nounwind uwtable
define noalias ptr @av_malloc(i64 noundef %0) #0 {
  %2 = alloca ptr, align 8
  %3 = alloca i64, align 8
  %4 = alloca ptr, align 8
  %5 = alloca i64, align 8
  %6 = alloca i32, align 4
  store i64 %0, ptr %3, align 8, !tbaa !4
  call void @llvm.lifetime.start.p0(i64 8, ptr %4) #11
  store ptr null, ptr %4, align 8, !tbaa !8
  %7 = load i64, ptr %3, align 8, !tbaa !4
  %8 = load atomic i64, ptr @max_alloc_size monotonic, align 8
  store i64 %8, ptr %5, align 8
  %9 = load i64, ptr %5, align 8, !tbaa !4
  %10 = icmp ugt i64 %7, %9
  br i1 %10, label %11, label %12

11:                                               ; preds = %1
  store ptr null, ptr %2, align 8
  store i32 1, ptr %6, align 4
  br label %31

12:                                               ; preds = %1
  %13 = load i64, ptr %3, align 8, !tbaa !4
  %14 = icmp ne i64 %13, 0
  br i1 %14, label %15, label %21

15:                                               ; preds = %12
  %16 = load i64, ptr %3, align 8, !tbaa !4
  %17 = call i32 @posix_memalign(ptr noundef %4, i64 noundef 16, i64 noundef %16) #11
  %18 = icmp ne i32 %17, 0
  br i1 %18, label %19, label %20

19:                                               ; preds = %15
  store ptr null, ptr %4, align 8, !tbaa !8
  br label %20

20:                                               ; preds = %19, %15
  br label %21

21:                                               ; preds = %20, %12
  %22 = load ptr, ptr %4, align 8, !tbaa !8
  %23 = icmp ne ptr %22, null
  br i1 %23, label %29, label %24

24:                                               ; preds = %21
  %25 = load i64, ptr %3, align 8, !tbaa !4
  %26 = icmp ne i64 %25, 0
  br i1 %26, label %29, label %27

27:                                               ; preds = %24
  store i64 1, ptr %3, align 8, !tbaa !4
  %28 = call noalias ptr @av_malloc(i64 noundef 1)
  store ptr %28, ptr %4, align 8, !tbaa !8
  br label %29

29:                                               ; preds = %27, %24, %21
  %30 = load ptr, ptr %4, align 8, !tbaa !8
  store ptr %30, ptr %2, align 8
  store i32 1, ptr %6, align 4
  br label %31

31:                                               ; preds = %29, %11
  call void @llvm.lifetime.end.p0(i64 8, ptr %4) #11
  %32 = load ptr, ptr %2, align 8
  ret ptr %32
}

; Function Attrs: nounwind uwtable
define internal i32 @size_mult(i64 noundef %0, i64 noundef %1, ptr noundef %2) #0 {
  %4 = alloca i32, align 4
  %5 = alloca i64, align 8
  %6 = alloca i64, align 8
  %7 = alloca ptr, align 8
  %8 = alloca i64, align 8
  %9 = alloca i32, align 4
  store i64 %0, ptr %5, align 8, !tbaa !4
  store i64 %1, ptr %6, align 8, !tbaa !4
  store ptr %2, ptr %7, align 8, !tbaa !10
  call void @llvm.lifetime.start.p0(i64 8, ptr %8) #11
  %10 = load i64, ptr %5, align 8, !tbaa !4
  %11 = load i64, ptr %6, align 8, !tbaa !4
  %12 = call { i64, i1 } @llvm.umul.with.overflow.i64(i64 %10, i64 %11)
  %13 = extractvalue { i64, i1 } %12, 1
  %14 = extractvalue { i64, i1 } %12, 0
  store i64 %14, ptr %8, align 8
  br i1 %13, label %15, label %16

15:                                               ; preds = %3
  store i32 -22, ptr %4, align 4
  store i32 1, ptr %9, align 4
  br label %19

16:                                               ; preds = %3
  %17 = load i64, ptr %8, align 8, !tbaa !4
  %18 = load ptr, ptr %7, align 8, !tbaa !10
  store i64 %17, ptr %18, align 8, !tbaa !4
  store i32 0, ptr %4, align 4
  store i32 1, ptr %9, align 4
  br label %19

19:                                               ; preds = %16, %15
  call void @llvm.lifetime.end.p0(i64 8, ptr %8) #11
  %20 = load i32, ptr %4, align 4
  ret i32 %20
}

; Function Attrs: nounwind uwtable
define ptr @av_malloc_array(i64 noundef %0, i64 noundef %1) #0 {
  %3 = alloca ptr, align 8
  %4 = alloca i64, align 8
  %5 = alloca i64, align 8
  %6 = alloca i64, align 8
  %7 = alloca i32, align 4
  store i64 %0, ptr %4, align 8, !tbaa !4
  store i64 %1, ptr %5, align 8, !tbaa !4
  call void @llvm.lifetime.start.p0(i64 8, ptr %6) #11
  %8 = load i64, ptr %4, align 8, !tbaa !4
  %9 = load i64, ptr %5, align 8, !tbaa !4
  %10 = call i32 @size_mult(i64 noundef %8, i64 noundef %9, ptr noundef %6)
  %11 = icmp slt i32 %10, 0
  br i1 %11, label %12, label %13

12:                                               ; preds = %2
  store ptr null, ptr %3, align 8
  store i32 1, ptr %7, align 4
  br label %16

13:                                               ; preds = %2
  %14 = load i64, ptr %6, align 8, !tbaa !4
  %15 = call noalias ptr @av_malloc(i64 noundef %14)
  store ptr %15, ptr %3, align 8
  store i32 1, ptr %7, align 4
  br label %16

16:                                               ; preds = %13, %12
  call void @llvm.lifetime.end.p0(i64 8, ptr %6) #11
  %17 = load ptr, ptr %3, align 8
  ret ptr %17
}