; Function Attrs: nofree nounwind uwtable
define ptr @av_malloc_array(i64 noundef %0, i64 noundef %1) local_unnamed_addr #1 {
  %3 = alloca ptr, align 8
  %4 = alloca ptr, align 8
  %5 = tail call { i64, i1 } @llvm.umul.with.overflow.i64(i64 %0, i64 %1)
  %6 = extractvalue { i64, i1 } %5, 1
  br i1 %6, label %size_mult.exit.thread, label %7

7:                                                ; preds = %2
  %8 = extractvalue { i64, i1 } %5, 0
  call void @llvm.lifetime.start.p0(i64 8, ptr nonnull %4) #21
  store ptr null, ptr %4, align 8, !tbaa !4
  %9 = load atomic i64, ptr @max_alloc_size monotonic, align 8
  %10 = icmp ugt i64 %8, %9
  br i1 %10, label %av_malloc.exit, label %11

11:                                               ; preds = %7
  %.not8.i = icmp eq i64 %8, 0
  br i1 %.not8.i, label %14, label %12

12:                                               ; preds = %11
  %13 = call i32 @posix_memalign(ptr noundef nonnull %4, i64 noundef 16, i64 noundef %8) #21
  %.not.i = icmp eq i32 %13, 0
  %.pre11.i = load ptr, ptr %4, align 8
  %spec.select.i = select i1 %.not.i, ptr %.pre11.i, ptr null
  br label %av_malloc.exit

14:                                               ; preds = %11
  call void @llvm.lifetime.start.p0(i64 8, ptr nonnull %3) #21
  store ptr null, ptr %3, align 8, !tbaa !4
  %15 = load atomic i64, ptr @max_alloc_size monotonic, align 8
  %16 = icmp eq i64 %15, 0
  br i1 %16, label %av_malloc.exit.i, label %17

17:                                               ; preds = %14
  %18 = call i32 @posix_memalign(ptr noundef nonnull %3, i64 noundef 16, i64 noundef 1) #21
  %.not.i.i = icmp eq i32 %18, 0
  %.pre.i = load ptr, ptr %3, align 8
  %spec.select12.i = select i1 %.not.i.i, ptr %.pre.i, ptr null
  br label %av_malloc.exit.i

av_malloc.exit.i:                                 ; preds = %17, %14
  %.0.i.i = phi ptr [ null, %14 ], [ %spec.select12.i, %17 ]
  call void @llvm.lifetime.end.p0(i64 8, ptr nonnull %3) #21
  br label %av_malloc.exit

av_malloc.exit:                                   ; preds = %7, %12, %av_malloc.exit.i
  %.0.i2 = phi ptr [ null, %7 ], [ %.0.i.i, %av_malloc.exit.i ], [ %spec.select.i, %12 ]
  call void @llvm.lifetime.end.p0(i64 8, ptr nonnull %4) #21
  br label %size_mult.exit.thread

size_mult.exit.thread:                            ; preds = %2, %av_malloc.exit
  %.0 = phi ptr [ %.0.i2, %av_malloc.exit ], [ null, %2 ]
  ret ptr %.0
}